; ModuleID = '53/43.c'
source_filename = "53/43.c"
target datalayout = "e-m:e-p270:32:32-p271:32:32-p272:64:64-i64:64-f80:128-n8:16:32:64-S128"
target triple = "x86_64-pc-linux-gnu"

@.str = private unnamed_addr constant [3 x i8] c"%d\00", align 1
@.str.1 = private unnamed_addr constant [4 x i8] c",%d\00", align 1

; Function Attrs: noinline nounwind uwtable
define dso_local void @main() #0 {
  %1 = alloca i32, align 4
  %2 = alloca i32, align 4
  %3 = alloca i32, align 4
  %4 = alloca i32, align 4
  %5 = alloca [300 x i32], align 16
  %6 = call i32 (i8*, ...) @__isoc99_scanf(i8* getelementptr inbounds ([3 x i8], [3 x i8]* @.str, i64 0, i64 0), i32* %1)
  store i32 0, i32* %2, align 4
  br label %7

7:                                                ; preds = %16, %0
  %8 = load i32, i32* %2, align 4
  %9 = load i32, i32* %1, align 4
  %10 = icmp slt i32 %8, %9
  br i1 %10, label %11, label %19

11:                                               ; preds = %7
  %12 = load i32, i32* %2, align 4
  %13 = sext i32 %12 to i64
  %14 = getelementptr inbounds [300 x i32], [300 x i32]* %5, i64 0, i64 %13
  %15 = call i32 (i8*, ...) @__isoc99_scanf(i8* getelementptr inbounds ([3 x i8], [3 x i8]* @.str, i64 0, i64 0), i32* %14)
  br label %16

16:                                               ; preds = %11
  %17 = load i32, i32* %2, align 4
  %18 = add nsw i32 %17, 1
  store i32 %18, i32* %2, align 4
  br label %7

19:                                               ; preds = %7
  store i32 0, i32* %2, align 4
  br label %20

20:                                               ; preds = %82, %19
  %21 = load i32, i32* %2, align 4
  %22 = load i32, i32* %1, align 4
  %23 = sub nsw i32 %22, 1
  %24 = icmp slt i32 %21, %23
  br i1 %24, label %25, label %85

25:                                               ; preds = %20
  %26 = load i32, i32* %2, align 4
  %27 = add nsw i32 %26, 1
  store i32 %27, i32* %3, align 4
  br label %28

28:                                               ; preds = %78, %25
  %29 = load i32, i32* %3, align 4
  %30 = load i32, i32* %1, align 4
  %31 = icmp slt i32 %29, %30
  br i1 %31, label %32, label %81

32:                                               ; preds = %28
  %33 = load i32, i32* %3, align 4
  %34 = sext i32 %33 to i64
  %35 = getelementptr inbounds [300 x i32], [300 x i32]* %5, i64 0, i64 %34
  %36 = load i32, i32* %35, align 4
  %37 = load i32, i32* %2, align 4
  %38 = sext i32 %37 to i64
  %39 = getelementptr inbounds [300 x i32], [300 x i32]* %5, i64 0, i64 %38
  %40 = load i32, i32* %39, align 4
  %41 = icmp eq i32 %36, %40
  br i1 %41, label %42, label %77

42:                                               ; preds = %32
  %43 = load i32, i32* %3, align 4
  store i32 %43, i32* %4, align 4
  br label %44

44:                                               ; preds = %58, %42
  %45 = load i32, i32* %4, align 4
  %46 = load i32, i32* %1, align 4
  %47 = sub nsw i32 %46, 1
  %48 = icmp slt i32 %45, %47
  br i1 %48, label %49, label %61

49:                                               ; preds = %44
  %50 = load i32, i32* %4, align 4
  %51 = add nsw i32 %50, 1
  %52 = sext i32 %51 to i64
  %53 = getelementptr inbounds [300 x i32], [300 x i32]* %5, i64 0, i64 %52
  %54 = load i32, i32* %53, align 4
  %55 = load i32, i32* %4, align 4
  %56 = sext i32 %55 to i64
  %57 = getelementptr inbounds [300 x i32], [300 x i32]* %5, i64 0, i64 %56
  store i32 %54, i32* %57, align 4
  br label %58

58:                                               ; preds = %49
  %59 = load i32, i32* %4, align 4
  %60 = add nsw i32 %59, 1
  store i32 %60, i32* %4, align 4
  br label %44

61:                                               ; preds = %44
  %62 = load i32, i32* %3, align 4
  %63 = sext i32 %62 to i64
  %64 = getelementptr inbounds [300 x i32], [300 x i32]* %5, i64 0, i64 %63
  %65 = load i32, i32* %64, align 4
  %66 = load i32, i32* %2, align 4
  %67 = sext i32 %66 to i64
  %68 = getelementptr inbounds [300 x i32], [300 x i32]* %5, i64 0, i64 %67
  %69 = load i32, i32* %68, align 4
  %70 = icmp eq i32 %65, %69
  br i1 %70, label %71, label %74

71:                                               ; preds = %61
  %72 = load i32, i32* %3, align 4
  %73 = add nsw i32 %72, -1
  store i32 %73, i32* %3, align 4
  br label %74

74:                                               ; preds = %71, %61
  %75 = load i32, i32* %1, align 4
  %76 = add nsw i32 %75, -1
  store i32 %76, i32* %1, align 4
  br label %77

77:                                               ; preds = %74, %32
  br label %78

78:                                               ; preds = %77
  %79 = load i32, i32* %3, align 4
  %80 = add nsw i32 %79, 1
  store i32 %80, i32* %3, align 4
  br label %28

81:                                               ; preds = %28
  br label %82

82:                                               ; preds = %81
  %83 = load i32, i32* %2, align 4
  %84 = add nsw i32 %83, 1
  store i32 %84, i32* %2, align 4
  br label %20

85:                                               ; preds = %20
  %86 = getelementptr inbounds [300 x i32], [300 x i32]* %5, i64 0, i64 0
  %87 = load i32, i32* %86, align 16
  %88 = call i32 (i8*, ...) @printf(i8* getelementptr inbounds ([3 x i8], [3 x i8]* @.str, i64 0, i64 0), i32 %87)
  store i32 1, i32* %2, align 4
  br label %89

89:                                               ; preds = %99, %85
  %90 = load i32, i32* %2, align 4
  %91 = load i32, i32* %1, align 4
  %92 = icmp slt i32 %90, %91
  br i1 %92, label %93, label %102

93:                                               ; preds = %89
  %94 = load i32, i32* %2, align 4
  %95 = sext i32 %94 to i64
  %96 = getelementptr inbounds [300 x i32], [300 x i32]* %5, i64 0, i64 %95
  %97 = load i32, i32* %96, align 4
  %98 = call i32 (i8*, ...) @printf(i8* getelementptr inbounds ([4 x i8], [4 x i8]* @.str.1, i64 0, i64 0), i32 %97)
  br label %99

99:                                               ; preds = %93
  %100 = load i32, i32* %2, align 4
  %101 = add nsw i32 %100, 1
  store i32 %101, i32* %2, align 4
  br label %89

102:                                              ; preds = %89
  ret void
}

declare dso_local i32 @__isoc99_scanf(i8*, ...) #1

declare dso_local i32 @printf(i8*, ...) #1


!llvm.module.flags = !{!0}
!llvm.ident = !{!1}

!0 = !{i32 1, !"wchar_size", i32 4}
!1 = !{!"clang version 10.0.0-4ubuntu1 "}
